target datalayout = "e-m:e-p270:32:32-p271:32:32-p272:64:64-i64:64-i128:128-f80:128-n8:16:32:64-S128"
target triple = "x86_64-pc-linux-gnu"

; Function Attrs: mustprogress nounwind uwtable
define internal void @_ZN2cv12cpu_baselineL12scaleAdd_32fEPKfS2_PfiS3_(ptr noundef %0, ptr noundef %1, ptr noundef %2, i32 noundef %3, ptr noundef %4) #8 {
  %6 = alloca ptr, align 8
  %7 = alloca ptr, align 8
  %8 = alloca ptr, align 8
  %9 = alloca i32, align 4
  %10 = alloca ptr, align 8
  %11 = alloca float, align 4
  %12 = alloca i32, align 4
  store ptr %0, ptr %6, align 8, !tbaa !3
  store ptr %1, ptr %7, align 8, !tbaa !3
  store ptr %2, ptr %8, align 8, !tbaa !3
  store i32 %3, ptr %9, align 4, !tbaa !12
  store ptr %4, ptr %10, align 8, !tbaa !3
  call void @llvm.lifetime.start.p0(i64 4, ptr %11) #3
  %13 = load ptr, ptr %10, align 8, !tbaa !3
  %14 = load float, ptr %13, align 4, !tbaa !10
  store float %14, ptr %11, align 4, !tbaa !10
  call void @llvm.lifetime.start.p0(i64 4, ptr %12) #3
  store i32 0, ptr %12, align 4, !tbaa !12
  br label %15

15:                                               ; preds = %36, %5
  %16 = load i32, ptr %12, align 4, !tbaa !12
  %17 = load i32, ptr %9, align 4, !tbaa !12
  %18 = icmp slt i32 %16, %17
  br i1 %18, label %19, label %39

19:                                               ; preds = %15
  %20 = load ptr, ptr %6, align 8, !tbaa !3
  %21 = load i32, ptr %12, align 4, !tbaa !12
  %22 = sext i32 %21 to i64
  %23 = getelementptr inbounds float, ptr %20, i64 %22
  %24 = load float, ptr %23, align 4, !tbaa !10
  %25 = load float, ptr %11, align 4, !tbaa !10
  %26 = load ptr, ptr %7, align 8, !tbaa !3
  %27 = load i32, ptr %12, align 4, !tbaa !12
  %28 = sext i32 %27 to i64
  %29 = getelementptr inbounds float, ptr %26, i64 %28
  %30 = load float, ptr %29, align 4, !tbaa !10
  %31 = call float @llvm.fmuladd.f32(float %24, float %25, float %30)
  %32 = load ptr, ptr %8, align 8, !tbaa !3
  %33 = load i32, ptr %12, align 4, !tbaa !12
  %34 = sext i32 %33 to i64
  %35 = getelementptr inbounds float, ptr %32, i64 %34
  store float %31, ptr %35, align 4, !tbaa !10
  br label %36

36:                                               ; preds = %19
  %37 = load i32, ptr %12, align 4, !tbaa !12
  %38 = add nsw i32 %37, 1
  store i32 %38, ptr %12, align 4, !tbaa !12
  br label %15, !llvm.loop !34

39:                                               ; preds = %15
  call void @llvm.lifetime.end.p0(i64 4, ptr %12) #3
  call void @llvm.lifetime.end.p0(i64 4, ptr %11) #3
  ret void
}