; Function Attrs: mustprogress nofree norecurse nosync nounwind memory(argmem: readwrite) uwtable
define internal void @_ZN2cv12cpu_baselineL12scaleAdd_32fEPKfS2_PfiS3_(ptr noundef readonly captures(none) %0, ptr noundef readonly captures(none) %1, ptr noundef writeonly captures(none) %2, i32 noundef %3, ptr noundef readonly captures(none) %4) #9 {
  %6 = load float, ptr %4, align 4, !tbaa !12
  %7 = icmp sgt i32 %3, 0
  br i1 %7, label %.lr.ph.preheader, label %._crit_edge

.lr.ph.preheader:                                 ; preds = %5
  %wide.trip.count = zext nneg i32 %3 to i64
  br label %.lr.ph

.lr.ph:                                           ; preds = %.lr.ph.preheader, %.lr.ph
  %indvars.iv = phi i64 [ 0, %.lr.ph.preheader ], [ %indvars.iv.next, %.lr.ph ]
  %8 = getelementptr inbounds nuw float, ptr %0, i64 %indvars.iv
  %9 = load float, ptr %8, align 4, !tbaa !12
  %10 = getelementptr inbounds nuw float, ptr %1, i64 %indvars.iv
  %11 = load float, ptr %10, align 4, !tbaa !12
  %12 = tail call float @llvm.fmuladd.f32(float %9, float %6, float %11)
  %13 = getelementptr inbounds nuw float, ptr %2, i64 %indvars.iv
  store float %12, ptr %13, align 4, !tbaa !12
  %indvars.iv.next = add nuw nsw i64 %indvars.iv, 1
  %exitcond.not = icmp eq i64 %indvars.iv.next, %wide.trip.count
  br i1 %exitcond.not, label %._crit_edge, label %.lr.ph, !llvm.loop !124

._crit_edge:                                      ; preds = %.lr.ph, %5
  ret void
}